target datalayout = "e-m:e-p270:32:32-p271:32:32-p272:64:64-i64:64-i128:128-f80:128-n8:16:32:64-S128"
target triple = "x86_64-pc-linux-gnu"

%"struct.DwarfFile::LineNumberProgram::LineNumberProgramHeader" = type { i32, i16, i32, i8, i8, i8, i8, i8, i8, [12 x i8], i64 }
%"struct.DwarfFile::LineNumberProgram::LineNumberProgramState" = type { i64, i32, i32, i32, i32, i8, i8, i8, i8, i8, i32, i32, i16, i8, i8, i8, i8, i8, i8 }

; Function Attrs: mustprogress nounwind uwtable
define hidden void @_ZN9DwarfFile17LineNumberProgram22LineNumberProgramState23add_to_address_registerEjRKNS0_23LineNumberProgramHeaderE(ptr noundef nonnull align 8 dereferenceable(48) %0, i32 noundef %1, ptr noundef nonnull align 8 dereferenceable(40) %2) #1 align 2 {
  %4 = alloca ptr, align 8
  %5 = alloca i32, align 4
  %6 = alloca ptr, align 8
  store ptr %0, ptr %4, align 8
  store i32 %1, ptr %5, align 4
  store ptr %2, ptr %6, align 8
  %7 = load ptr, ptr %4, align 8
  %8 = getelementptr inbounds %"struct.DwarfFile::LineNumberProgram::LineNumberProgramState", ptr %7, i32 0, i32 12
  %9 = load i16, ptr %8, align 8
  %10 = zext i16 %9 to i32
  %11 = icmp eq i32 %10, 2
  br i1 %11, label %17, label %12

12:                                               ; preds = %3
  %13 = getelementptr inbounds %"struct.DwarfFile::LineNumberProgram::LineNumberProgramState", ptr %7, i32 0, i32 12
  %14 = load i16, ptr %13, align 8
  %15 = zext i16 %14 to i32
  %16 = icmp eq i32 %15, 3
  br i1 %16, label %17, label %28

17:                                               ; preds = %12, %3
  %18 = load i32, ptr %5, align 4
  %19 = load ptr, ptr %6, align 8
  %20 = getelementptr inbounds %"struct.DwarfFile::LineNumberProgram::LineNumberProgramHeader", ptr %19, i32 0, i32 3
  %21 = load i8, ptr %20, align 4
  %22 = zext i8 %21 to i32
  %23 = mul i32 %18, %22
  %24 = zext i32 %23 to i64
  %25 = getelementptr inbounds %"struct.DwarfFile::LineNumberProgram::LineNumberProgramState", ptr %7, i32 0, i32 0
  %26 = load i64, ptr %25, align 8
  %27 = add i64 %26, %24
  store i64 %27, ptr %25, align 8
  br label %53

28:                                               ; preds = %12
  %29 = getelementptr inbounds %"struct.DwarfFile::LineNumberProgram::LineNumberProgramState", ptr %7, i32 0, i32 12
  %30 = load i16, ptr %29, align 8
  %31 = zext i16 %30 to i32
  %32 = icmp eq i32 %31, 4
  br i1 %32, label %33, label %52

33:                                               ; preds = %28
  %34 = load ptr, ptr %6, align 8
  %35 = getelementptr inbounds %"struct.DwarfFile::LineNumberProgram::LineNumberProgramHeader", ptr %34, i32 0, i32 3
  %36 = load i8, ptr %35, align 4
  %37 = zext i8 %36 to i32
  %38 = getelementptr inbounds %"struct.DwarfFile::LineNumberProgram::LineNumberProgramState", ptr %7, i32 0, i32 1
  %39 = load i32, ptr %38, align 8
  %40 = load i32, ptr %5, align 4
  %41 = add i32 %39, %40
  %42 = load ptr, ptr %6, align 8
  %43 = getelementptr inbounds %"struct.DwarfFile::LineNumberProgram::LineNumberProgramHeader", ptr %42, i32 0, i32 4
  %44 = load i8, ptr %43, align 1
  %45 = zext i8 %44 to i32
  %46 = udiv i32 %41, %45
  %47 = mul i32 %37, %46
  %48 = zext i32 %47 to i64
  %49 = getelementptr inbounds %"struct.DwarfFile::LineNumberProgram::LineNumberProgramState", ptr %7, i32 0, i32 0
  %50 = load i64, ptr %49, align 8
  %51 = add i64 %50, %48
  store i64 %51, ptr %49, align 8
  br label %52

52:                                               ; preds = %33, %28
  br label %53

53:                                               ; preds = %52, %17
  ret void
}