; Function Attrs: mustprogress nofree norecurse nosync nounwind willreturn memory(argmem: readwrite) uwtable
define hidden void @_ZN9DwarfFile17LineNumberProgram22LineNumberProgramState23add_to_address_registerEjRKNS0_23LineNumberProgramHeaderE(ptr nocapture noundef nonnull align 8 dereferenceable(48) %0, i32 noundef %1, ptr nocapture noundef nonnull readonly align 8 dereferenceable(40) %2) local_unnamed_addr #8 align 2 {
  %4 = getelementptr inbounds i8, ptr %0, i64 40
  %5 = load i16, ptr %4, align 8
  switch i16 %5, label %26 [
    i16 2, label %6
    i16 3, label %6
    i16 4, label %11
  ]

6:                                                ; preds = %3, %3
  %7 = getelementptr inbounds i8, ptr %2, i64 12
  %8 = load i8, ptr %7, align 4
  %9 = zext i8 %8 to i32
  %10 = mul i32 %9, %1
  br label %.sink.split

11:                                               ; preds = %3
  %12 = getelementptr inbounds i8, ptr %2, i64 12
  %13 = load i8, ptr %12, align 4
  %14 = zext i8 %13 to i32
  %15 = getelementptr inbounds i8, ptr %0, i64 8
  %16 = load i32, ptr %15, align 8
  %17 = add i32 %16, %1
  %18 = getelementptr inbounds i8, ptr %2, i64 13
  %19 = load i8, ptr %18, align 1
  %20 = zext i8 %19 to i32
  %21 = udiv i32 %17, %20
  %22 = mul i32 %21, %14
  br label %.sink.split

.sink.split:                                      ; preds = %6, %11
  %.sink = phi i32 [ %22, %11 ], [ %10, %6 ]
  %23 = zext i32 %.sink to i64
  %24 = load i64, ptr %0, align 8
  %25 = add i64 %24, %23
  store i64 %25, ptr %0, align 8
  br label %26

26:                                               ; preds = %.sink.split, %3
  ret void
}